EXPORTS
    _Z13call_price_mclddddd@44 @1
    _Z22call_price_closed_fromddddd@40 @2
    _Z3d_jiddddd @3
    _Z8norm_cdfd @4
    _ZNKSt19normal_distributionIdE10param_type4meanEv @5
    _ZNKSt19normal_distributionIdE10param_type6stddevEv @6
    _ZNSt19normal_distributionIdE10param_typeC1Edd @7
    _ZNSt19normal_distributionIdEC1Edd @8
    _ZNSt19normal_distributionIdEclISt26linear_congruential_engineIjLj16807ELj0ELj2147483647EEEEdRT_ @9
    _ZNSt19normal_distributionIdEclISt26linear_congruential_engineIjLj16807ELj0ELj2147483647EEEEdRT_RKNS0_10param_typeE @10
    _ZNSt26linear_congruential_engineIjLj16807ELj0ELj2147483647EE3maxEv @11
    _ZNSt26linear_congruential_engineIjLj16807ELj0ELj2147483647EE3minEv @12
    _ZNSt26linear_congruential_engineIjLj16807ELj0ELj2147483647EE4seedEj @13
    _ZNSt26linear_congruential_engineIjLj16807ELj0ELj2147483647EEC1Ej @14
    _ZNSt26linear_congruential_engineIjLj16807ELj0ELj2147483647EEclEv @15
    _ZNSt8__detail4_ModIjLj2147483647ELj16807ELj0ELb0ELb1EE6__calcEj @16
    _ZNSt8__detail4_ModIjLj2147483647ELj1ELj0ELb1ELb1EE6__calcEj @17
    _ZNSt8__detail5__modIjLj2147483647ELj16807ELj0EEET_S1_ @18
    _ZNSt8__detail5__modIjLj2147483647ELj1ELj0EEET_S1_ @19
    _ZNSt8__detail8_AdaptorISt26linear_congruential_engineIjLj16807ELj0ELj2147483647EEdEC1ERS2_ @20
    _ZNSt8__detail8_AdaptorISt26linear_congruential_engineIjLj16807ELj0ELj2147483647EEdEclEv @21
    _ZSt18generate_canonicalIdLj53ESt26linear_congruential_engineIjLj16807ELj0ELj2147483647EEET_RT1_ @22
    _ZSt3loge @23
    _ZSt3maxIjERKT_S2_S2_ @24
    _ZSt3minIjERKT_S2_S2_ @25
    callpricemc = _Z13call_price_mclddddd@44
    callpriceform = _Z22call_price_closed_fromddddd@40
